; Function Attrs: mustprogress nounwind uwtable
define internal void @_ZN12_GLOBAL__N_115TextFileHandler10ReadBundleERN4llvm11raw_ostreamERNS1_12MemoryBufferE(ptr dead_on_unwind noalias nocapture writable writeonly sret(%"class.llvm::Error") align 8 %0, ptr noundef nonnull align 8 dereferenceable(96) %1, ptr noundef nonnull align 8 dereferenceable(48) %2, ptr nocapture noundef nonnull readonly align 8 dereferenceable(24) %3) unnamed_addr #3 align 2 {
  %5 = alloca %"class.llvm::StringRef", align 8
  %6 = getelementptr inbounds nuw i8, ptr %3, i64 8
  %7 = load ptr, ptr %6, align 8
  %8 = getelementptr inbounds nuw i8, ptr %3, i64 16
  %9 = load ptr, ptr %8, align 8
  %10 = ptrtoint ptr %9 to i64
  %11 = ptrtoint ptr %7 to i64
  %12 = sub i64 %10, %11
  store ptr %7, ptr %5, align 8
  %13 = getelementptr inbounds nuw i8, ptr %5, i64 8
  store i64 %12, ptr %13, align 8
  %14 = getelementptr inbounds nuw i8, ptr %1, i64 88
  %15 = load i64, ptr %14, align 8
  %16 = getelementptr inbounds nuw i8, ptr %1, i64 56
  %17 = tail call noundef ptr @_ZNKSt7__cxx1112basic_stringIcSt11char_traitsIcESaIcEE4dataEv(ptr noundef nonnull align 8 dereferenceable(32) %16) #24
  %18 = tail call noundef i64 @_ZNKSt7__cxx1112basic_stringIcSt11char_traitsIcESaIcEE6lengthEv(ptr noundef nonnull align 8 dereferenceable(32) %16) #24
  %19 = load i64, ptr %14, align 8
  %20 = call noundef i64 @_ZNK4llvm9StringRef4findES0_m(ptr noundef nonnull align 8 dereferenceable(16) %5, ptr %17, i64 %18, i64 noundef %19) #24
  store i64 %20, ptr %14, align 8
  %21 = load ptr, ptr %5, align 8
  %22 = getelementptr inbounds i8, ptr %21, i64 %15
  %23 = sub i64 %20, %15
  %24 = getelementptr inbounds nuw i8, ptr %2, i64 24
  %25 = load ptr, ptr %24, align 8
  %26 = getelementptr inbounds nuw i8, ptr %2, i64 32
  %27 = load ptr, ptr %26, align 8
  %28 = ptrtoint ptr %25 to i64
  %29 = ptrtoint ptr %27 to i64
  %30 = sub i64 %28, %29
  %31 = icmp ugt i64 %23, %30
  br i1 %31, label %32, label %34

32:                                               ; preds = %4
  %33 = call noundef nonnull align 8 dereferenceable(48) ptr @_ZN4llvm11raw_ostream5writeEPKcm(ptr noundef nonnull align 8 dereferenceable(48) %2, ptr noundef %22, i64 noundef %23) #24
  br label %_ZN4llvm12ErrorSuccessD2Ev.exit

34:                                               ; preds = %4
  %.not.i = icmp eq i64 %20, %15
  br i1 %.not.i, label %_ZN4llvm12ErrorSuccessD2Ev.exit, label %35

35:                                               ; preds = %34
  call void @llvm.memcpy.p0.p0.i64(ptr align 1 %27, ptr align 1 %22, i64 %23, i1 false)
  %36 = load ptr, ptr %26, align 8
  %37 = getelementptr inbounds i8, ptr %36, i64 %23
  store ptr %37, ptr %26, align 8
  br label %_ZN4llvm12ErrorSuccessD2Ev.exit

_ZN4llvm12ErrorSuccessD2Ev.exit:                  ; preds = %35, %34, %32
  store ptr null, ptr %0, align 8
  ret void
}